target datalayout = "e-m:e-p270:32:32-p271:32:32-p272:64:64-i64:64-i128:128-f80:128-n8:16:32:64-S128"
target triple = "x86_64-pc-linux-gnu"

%struct.PwLoopData = type { ptr, ptr, ptr, %struct.spa_hook, i32 }
%struct.spa_hook = type { %struct.spa_list, %struct.spa_callbacks, ptr, ptr }
%struct.spa_list = type { ptr, ptr }
%struct.spa_callbacks = type { ptr, ptr }
%struct.GdkRectangle = type { i32, i32, i32, i32 }
%struct.ScreenProps = type { i32, %struct.GdkRectangle, %struct.GdkRectangle, ptr, ptr, i32, i32 }
%struct.PwStreamData = type { ptr, %struct.spa_hook, %struct.spa_video_info_raw, ptr, i32 }
%struct.spa_video_info_raw = type { i32, i32, i64, %struct.spa_rectangle, %struct.spa_fraction, %struct.spa_fraction, i32, i32, %struct.spa_fraction, i32, i32, i32, i32, i32, i32, i32 }
%struct.spa_rectangle = type { i32, i32 }
%struct.spa_fraction = type { i32, i32 }

@pw = internal global %struct.PwLoopData zeroinitializer, align 8
@fp_pw_stream_state_as_string = hidden global ptr null, align 8
@fp_pw_thread_loop_signal = hidden global ptr null, align 8
@hasPipewireFailed = internal global i32 0, align 4
@.str.73 = private unnamed_addr constant [75 x i8] c"%s:%i screenId#%i[loc(%d,%d) size(%dx%d)] state %i (%s) -> %i (%s) err %s\0A\00", align 1
@__func__.onStreamStateChanged = private unnamed_addr constant [21 x i8] c"onStreamStateChanged\00", align 1

; Function Attrs: nounwind uwtable
define internal void @onStreamStateChanged(ptr noundef %0, i32 noundef %1, i32 noundef %2, ptr noundef %3) #0 {
  %5 = alloca ptr, align 8
  %6 = alloca i32, align 4
  %7 = alloca i32, align 4
  %8 = alloca ptr, align 8
  %9 = alloca ptr, align 8
  store ptr %0, ptr %5, align 8
  store i32 %1, ptr %6, align 4
  store i32 %2, ptr %7, align 4
  store ptr %3, ptr %8, align 8
  %10 = load ptr, ptr %5, align 8
  store ptr %10, ptr %9, align 8
  %11 = load ptr, ptr %9, align 8
  %12 = getelementptr inbounds %struct.PwStreamData, ptr %11, i32 0, i32 3
  %13 = load ptr, ptr %12, align 8
  %14 = getelementptr inbounds %struct.ScreenProps, ptr %13, i32 0, i32 0
  %15 = load i32, ptr %14, align 8
  %16 = load ptr, ptr %9, align 8
  %17 = getelementptr inbounds %struct.PwStreamData, ptr %16, i32 0, i32 3
  %18 = load ptr, ptr %17, align 8
  %19 = getelementptr inbounds %struct.ScreenProps, ptr %18, i32 0, i32 1
  %20 = getelementptr inbounds %struct.GdkRectangle, ptr %19, i32 0, i32 0
  %21 = load i32, ptr %20, align 4
  %22 = load ptr, ptr %9, align 8
  %23 = getelementptr inbounds %struct.PwStreamData, ptr %22, i32 0, i32 3
  %24 = load ptr, ptr %23, align 8
  %25 = getelementptr inbounds %struct.ScreenProps, ptr %24, i32 0, i32 1
  %26 = getelementptr inbounds %struct.GdkRectangle, ptr %25, i32 0, i32 1
  %27 = load i32, ptr %26, align 4
  %28 = load ptr, ptr %9, align 8
  %29 = getelementptr inbounds %struct.PwStreamData, ptr %28, i32 0, i32 3
  %30 = load ptr, ptr %29, align 8
  %31 = getelementptr inbounds %struct.ScreenProps, ptr %30, i32 0, i32 1
  %32 = getelementptr inbounds %struct.GdkRectangle, ptr %31, i32 0, i32 2
  %33 = load i32, ptr %32, align 4
  %34 = load ptr, ptr %9, align 8
  %35 = getelementptr inbounds %struct.PwStreamData, ptr %34, i32 0, i32 3
  %36 = load ptr, ptr %35, align 8
  %37 = getelementptr inbounds %struct.ScreenProps, ptr %36, i32 0, i32 1
  %38 = getelementptr inbounds %struct.GdkRectangle, ptr %37, i32 0, i32 3
  %39 = load i32, ptr %38, align 4
  %40 = load i32, ptr %6, align 4
  %41 = load ptr, ptr @fp_pw_stream_state_as_string, align 8
  %42 = load i32, ptr %6, align 4
  %43 = call ptr %41(i32 noundef %42)
  %44 = load i32, ptr %7, align 4
  %45 = load ptr, ptr @fp_pw_stream_state_as_string, align 8
  %46 = load i32, ptr %7, align 4
  %47 = call ptr %45(i32 noundef %46)
  %48 = load ptr, ptr %8, align 8
  call void (ptr, ...) @debug_screencast(ptr noundef @.str.73, ptr noundef @__func__.onStreamStateChanged, i32 noundef 363, i32 noundef %15, i32 noundef %21, i32 noundef %27, i32 noundef %33, i32 noundef %39, i32 noundef %40, ptr noundef %43, i32 noundef %44, ptr noundef %47, ptr noundef %48)
  %49 = load i32, ptr %7, align 4
  %50 = icmp eq i32 %49, -1
  br i1 %50, label %54, label %51

51:                                               ; preds = %4
  %52 = load i32, ptr %7, align 4
  %53 = icmp eq i32 %52, 0
  br i1 %53, label %54, label %57

54:                                               ; preds = %51, %4
  store i32 1, ptr @hasPipewireFailed, align 4
  %55 = load ptr, ptr @fp_pw_thread_loop_signal, align 8
  %56 = load ptr, ptr @pw, align 8
  call void %55(ptr noundef %56, i1 noundef zeroext false)
  br label %57

57:                                               ; preds = %54, %51
  ret void
}