; Function Attrs: nounwind uwtable
define internal void @onStreamStateChanged(ptr nocapture noundef readonly %0, i32 noundef %1, i32 noundef %2, ptr noundef %3) #3 {
  %5 = getelementptr inbounds i8, ptr %0, i64 144
  %6 = load ptr, ptr %5, align 8
  %7 = load i32, ptr %6, align 8
  %8 = getelementptr inbounds i8, ptr %6, i64 4
  %9 = load i32, ptr %8, align 4
  %10 = getelementptr inbounds i8, ptr %6, i64 8
  %11 = load i32, ptr %10, align 4
  %12 = getelementptr inbounds i8, ptr %6, i64 12
  %13 = load i32, ptr %12, align 4
  %14 = getelementptr inbounds i8, ptr %6, i64 16
  %15 = load i32, ptr %14, align 4
  %16 = load ptr, ptr @fp_pw_stream_state_as_string, align 8
  %17 = tail call ptr %16(i32 noundef %1) #15
  %18 = load ptr, ptr @fp_pw_stream_state_as_string, align 8
  %19 = tail call ptr %18(i32 noundef %2) #15
  tail call void (ptr, ...) @debug_screencast(ptr noundef nonnull @.str.73, ptr noundef nonnull @__func__.onStreamStateChanged, i32 noundef 363, i32 noundef %7, i32 noundef %9, i32 noundef %11, i32 noundef %13, i32 noundef %15, i32 noundef %1, ptr noundef %17, i32 noundef %2, ptr noundef %19, ptr noundef %3)
  %20 = add i32 %2, 1
  %or.cond = icmp ult i32 %20, 2
  br i1 %or.cond, label %21, label %24

21:                                               ; preds = %4
  store i1 true, ptr @hasPipewireFailed, align 4
  %22 = load ptr, ptr @fp_pw_thread_loop_signal, align 8
  %23 = load ptr, ptr @pw, align 8
  tail call void %22(ptr noundef %23, i1 noundef zeroext false) #15
  br label %24

24:                                               ; preds = %4, %21
  ret void
}